target datalayout = "e-m:e-p270:32:32-p271:32:32-p272:64:64-i64:64-i128:128-f80:128-n8:16:32:64-S128"
target triple = "x86_64-pc-linux-gnu"

%struct.Wlc_Ntk_t_ = type { ptr, ptr, %struct.Vec_Int_t_, %struct.Vec_Int_t_, %struct.Vec_Int_t_, %struct.Vec_Int_t_, %struct.Vec_Int_t_, %struct.Vec_Int_t_, ptr, ptr, ptr, [60 x i32], [60 x i32], i32, i32, i32, i32, i32, ptr, i32, i32, ptr, ptr, ptr, ptr, ptr, %struct.Vec_Int_t_, %struct.Vec_Int_t_, i32, %struct.Vec_Int_t_, %struct.Vec_Int_t_, %struct.Vec_Int_t_, %struct.Vec_Int_t_, %struct.Vec_Int_t_, %struct.Vec_Int_t_ }
%struct.Vec_Int_t_ = type { i32, i32, ptr }
%struct.Wlc_Obj_t_ = type { i16, i32, i32, i32, %union.anon }
%union.anon = type { [1 x ptr] }

; Function Attrs: nounwind uwtable
define internal i32 @Wlc_ObjIsCi(ptr noundef %0) #0 {
  %2 = alloca ptr, align 8
  store ptr %0, ptr %2, align 8
  %3 = load ptr, ptr %2, align 8
  %4 = load i16, ptr %3, align 8
  %5 = and i16 %4, 63
  %6 = zext i16 %5 to i32
  %7 = icmp eq i32 %6, 1
  br i1 %7, label %14, label %8

8:                                                ; preds = %1
  %9 = load ptr, ptr %2, align 8
  %10 = load i16, ptr %9, align 8
  %11 = and i16 %10, 63
  %12 = zext i16 %11 to i32
  %13 = icmp eq i32 %12, 3
  br label %14

14:                                               ; preds = %8, %1
  %15 = phi i1 [ true, %1 ], [ %13, %8 ]
  %16 = zext i1 %15 to i32
  ret i32 %16
}

; Function Attrs: nounwind uwtable
define internal ptr @Wlc_NtkObj(ptr noundef %0, i32 noundef %1) #0 {
  %3 = alloca ptr, align 8
  %4 = alloca i32, align 4
  store ptr %0, ptr %3, align 8
  store i32 %1, ptr %4, align 4
  %5 = load ptr, ptr %3, align 8
  %6 = getelementptr inbounds %struct.Wlc_Ntk_t_, ptr %5, i32 0, i32 18
  %7 = load ptr, ptr %6, align 8
  %8 = load i32, ptr %4, align 4
  %9 = sext i32 %8 to i64
  %10 = getelementptr inbounds %struct.Wlc_Obj_t_, ptr %7, i64 %9
  ret ptr %10
}

; Function Attrs: nounwind uwtable
define i32 @Wlc_ObjAlloc(ptr noundef %0, i32 noundef %1, i32 noundef %2, i32 noundef %3, i32 noundef %4) #0 {
  %6 = alloca ptr, align 8
  %7 = alloca i32, align 4
  %8 = alloca i32, align 4
  %9 = alloca i32, align 4
  %10 = alloca i32, align 4
  %11 = alloca ptr, align 8
  store ptr %0, ptr %6, align 8
  store i32 %1, ptr %7, align 4
  store i32 %2, ptr %8, align 4
  store i32 %3, ptr %9, align 4
  store i32 %4, ptr %10, align 4
  %12 = load ptr, ptr %6, align 8
  %13 = getelementptr inbounds %struct.Wlc_Ntk_t_, ptr %12, i32 0, i32 19
  %14 = load i32, ptr %13, align 8
  %15 = load ptr, ptr %6, align 8
  %16 = getelementptr inbounds %struct.Wlc_Ntk_t_, ptr %15, i32 0, i32 20
  %17 = load i32, ptr %16, align 4
  %18 = icmp eq i32 %14, %17
  br i1 %18, label %19, label %64

19:                                               ; preds = %5
  %20 = load ptr, ptr %6, align 8
  %21 = getelementptr inbounds %struct.Wlc_Ntk_t_, ptr %20, i32 0, i32 18
  %22 = load ptr, ptr %21, align 8
  %23 = icmp ne ptr %22, null
  br i1 %23, label %24, label %35

24:                                               ; preds = %19
  %25 = load ptr, ptr %6, align 8
  %26 = getelementptr inbounds %struct.Wlc_Ntk_t_, ptr %25, i32 0, i32 18
  %27 = load ptr, ptr %26, align 8
  %28 = load ptr, ptr %6, align 8
  %29 = getelementptr inbounds %struct.Wlc_Ntk_t_, ptr %28, i32 0, i32 20
  %30 = load i32, ptr %29, align 4
  %31 = mul nsw i32 2, %30
  %32 = sext i32 %31 to i64
  %33 = mul i64 24, %32
  %34 = call ptr @realloc(ptr noundef %27, i64 noundef %33) #10
  br label %43

35:                                               ; preds = %19
  %36 = load ptr, ptr %6, align 8
  %37 = getelementptr inbounds %struct.Wlc_Ntk_t_, ptr %36, i32 0, i32 20
  %38 = load i32, ptr %37, align 4
  %39 = mul nsw i32 2, %38
  %40 = sext i32 %39 to i64
  %41 = mul i64 24, %40
  %42 = call noalias ptr @malloc(i64 noundef %41) #11
  br label %43

43:                                               ; preds = %35, %24
  %44 = phi ptr [ %34, %24 ], [ %42, %35 ]
  %45 = load ptr, ptr %6, align 8
  %46 = getelementptr inbounds %struct.Wlc_Ntk_t_, ptr %45, i32 0, i32 18
  store ptr %44, ptr %46, align 8
  %47 = load ptr, ptr %6, align 8
  %48 = getelementptr inbounds %struct.Wlc_Ntk_t_, ptr %47, i32 0, i32 18
  %49 = load ptr, ptr %48, align 8
  %50 = load ptr, ptr %6, align 8
  %51 = getelementptr inbounds %struct.Wlc_Ntk_t_, ptr %50, i32 0, i32 20
  %52 = load i32, ptr %51, align 4
  %53 = sext i32 %52 to i64
  %54 = getelementptr inbounds %struct.Wlc_Obj_t_, ptr %49, i64 %53
  %55 = load ptr, ptr %6, align 8
  %56 = getelementptr inbounds %struct.Wlc_Ntk_t_, ptr %55, i32 0, i32 20
  %57 = load i32, ptr %56, align 4
  %58 = sext i32 %57 to i64
  %59 = mul i64 24, %58
  call void @llvm.memset.p0.i64(ptr align 8 %54, i8 0, i64 %59, i1 false)
  %60 = load ptr, ptr %6, align 8
  %61 = getelementptr inbounds %struct.Wlc_Ntk_t_, ptr %60, i32 0, i32 20
  %62 = load i32, ptr %61, align 4
  %63 = mul nsw i32 %62, 2
  store i32 %63, ptr %61, align 4
  br label %64

64:                                               ; preds = %43, %5
  %65 = load ptr, ptr %6, align 8
  %66 = load ptr, ptr %6, align 8
  %67 = getelementptr inbounds %struct.Wlc_Ntk_t_, ptr %66, i32 0, i32 19
  %68 = load i32, ptr %67, align 8
  %69 = call ptr @Wlc_NtkObj(ptr noundef %65, i32 noundef %68)
  store ptr %69, ptr %11, align 8
  %70 = load i32, ptr %7, align 4
  %71 = load ptr, ptr %11, align 8
  %72 = trunc i32 %70 to i16
  %73 = load i16, ptr %71, align 8
  %74 = and i16 %72, 63
  %75 = and i16 %73, -64
  %76 = or i16 %75, %74
  store i16 %76, ptr %71, align 8
  %77 = load i32, ptr %8, align 4
  %78 = load ptr, ptr %11, align 8
  %79 = trunc i32 %77 to i16
  %80 = load i16, ptr %78, align 8
  %81 = and i16 %79, 1
  %82 = shl i16 %81, 6
  %83 = and i16 %80, -65
  %84 = or i16 %83, %82
  store i16 %84, ptr %78, align 8
  %85 = load i32, ptr %9, align 4
  %86 = load ptr, ptr %11, align 8
  %87 = getelementptr inbounds %struct.Wlc_Obj_t_, ptr %86, i32 0, i32 2
  store i32 %85, ptr %87, align 8
  %88 = load i32, ptr %10, align 4
  %89 = load ptr, ptr %11, align 8
  %90 = getelementptr inbounds %struct.Wlc_Obj_t_, ptr %89, i32 0, i32 3
  store i32 %88, ptr %90, align 4
  %91 = load ptr, ptr %11, align 8
  %92 = call i32 @Wlc_ObjIsCi(ptr noundef %91)
  %93 = icmp ne i32 %92, 0
  br i1 %93, label %94, label %97

94:                                               ; preds = %64
  %95 = load ptr, ptr %6, align 8
  %96 = load ptr, ptr %11, align 8
  call void @Wlc_ObjSetCi(ptr noundef %95, ptr noundef %96)
  br label %97

97:                                               ; preds = %94, %64
  %98 = load ptr, ptr %6, align 8
  %99 = getelementptr inbounds %struct.Wlc_Ntk_t_, ptr %98, i32 0, i32 11
  %100 = load i32, ptr %7, align 4
  %101 = sext i32 %100 to i64
  %102 = getelementptr inbounds [60 x i32], ptr %99, i64 0, i64 %101
  %103 = load i32, ptr %102, align 4
  %104 = add nsw i32 %103, 1
  store i32 %104, ptr %102, align 4
  %105 = load ptr, ptr %6, align 8
  %106 = getelementptr inbounds %struct.Wlc_Ntk_t_, ptr %105, i32 0, i32 19
  %107 = load i32, ptr %106, align 8
  %108 = add nsw i32 %107, 1
  store i32 %108, ptr %106, align 8
  ret i32 %107
}