; Function Attrs: nounwind uwtable
define i32 @Wlc_ObjAlloc(ptr noundef captures(none) %0, i32 noundef %1, i32 noundef %2, i32 noundef %3, i32 noundef %4) local_unnamed_addr #3 {
  %6 = getelementptr inbounds nuw i8, ptr %0, i64 648
  %7 = load i32, ptr %6, align 8
  %8 = getelementptr inbounds nuw i8, ptr %0, i64 652
  %9 = load i32, ptr %8, align 4
  %10 = icmp eq i32 %7, %9
  %11 = getelementptr i8, ptr %0, i64 640
  %12 = load ptr, ptr %11, align 8
  br i1 %10, label %13, label %._crit_edge

13:                                               ; preds = %5
  %.not = icmp eq ptr %12, null
  %14 = shl nsw i32 %7, 1
  %15 = sext i32 %14 to i64
  %16 = mul nsw i64 %15, 24
  br i1 %.not, label %19, label %17

17:                                               ; preds = %13
  %18 = tail call ptr @realloc(ptr noundef nonnull %12, i64 noundef %16) #27
  %.pre = load i32, ptr %8, align 4
  %.pre29.pre = load i32, ptr %6, align 8
  %.pre32 = shl nsw i32 %.pre, 1
  br label %21

19:                                               ; preds = %13
  %20 = tail call noalias ptr @malloc(i64 noundef %16) #26
  br label %21

21:                                               ; preds = %19, %17
  %.pre-phi = phi i32 [ %14, %19 ], [ %.pre32, %17 ]
  %.pre29 = phi i32 [ %7, %19 ], [ %.pre29.pre, %17 ]
  %22 = phi i32 [ %7, %19 ], [ %.pre, %17 ]
  %23 = phi ptr [ %20, %19 ], [ %18, %17 ]
  store ptr %23, ptr %11, align 8
  %24 = sext i32 %22 to i64
  %25 = getelementptr inbounds %struct.Wlc_Obj_t_, ptr %23, i64 %24
  %26 = mul nsw i64 %24, 24
  tail call void @llvm.memset.p0.i64(ptr align 8 %25, i8 0, i64 %26, i1 false)
  store i32 %.pre-phi, ptr %8, align 4
  br label %._crit_edge

._crit_edge:                                      ; preds = %5, %21
  %.val = phi ptr [ %23, %21 ], [ %12, %5 ]
  %27 = phi i32 [ %.pre29, %21 ], [ %7, %5 ]
  %28 = sext i32 %27 to i64
  %29 = getelementptr inbounds %struct.Wlc_Obj_t_, ptr %.val, i64 %28
  %30 = trunc i32 %1 to i16
  %31 = load i16, ptr %29, align 8
  %32 = and i16 %30, 63
  %33 = and i16 %31, -128
  %34 = trunc i32 %2 to i16
  %35 = shl i16 %34, 6
  %36 = and i16 %35, 64
  %37 = or disjoint i16 %36, %32
  %38 = or disjoint i16 %37, %33
  store i16 %38, ptr %29, align 8
  %39 = getelementptr inbounds nuw i8, ptr %29, i64 8
  store i32 %3, ptr %39, align 8
  %40 = getelementptr inbounds nuw i8, ptr %29, i64 12
  store i32 %4, ptr %40, align 4
  %41 = and i16 %30, 61
  %narrow.i.not = icmp eq i16 %41, 1
  br i1 %narrow.i.not, label %42, label %43

42:                                               ; preds = %._crit_edge
  tail call void @Wlc_ObjSetCi(ptr noundef nonnull %0, ptr noundef nonnull %29)
  br label %43

43:                                               ; preds = %42, %._crit_edge
  %44 = getelementptr inbounds nuw i8, ptr %0, i64 136
  %45 = sext i32 %1 to i64
  %46 = getelementptr inbounds [60 x i32], ptr %44, i64 0, i64 %45
  %47 = load i32, ptr %46, align 4
  %48 = add nsw i32 %47, 1
  store i32 %48, ptr %46, align 4
  %49 = load i32, ptr %6, align 8
  %50 = add nsw i32 %49, 1
  store i32 %50, ptr %6, align 8
  ret i32 %49
}